target datalayout = "e-m:e-p270:32:32-p271:32:32-p272:64:64-i64:64-i128:128-f80:128-n8:16:32:64-S128"
target triple = "x86_64-pc-linux-gnu"

%struct._zval_struct = type { %union._zend_value, %union.anon.3, %union.anon.6 }
%union._zend_value = type { i64 }
%union.anon.3 = type { i32 }
%union.anon.6 = type { i32 }
%struct._zend_array = type { %struct._zend_refcounted_h, %union.anon.0, i32, %union.anon.1, i32, i32, i32, i32, i64, ptr }
%struct._zend_refcounted_h = type { i32, %union.anon }
%union.anon = type { i32 }
%union.anon.0 = type { i32 }
%union.anon.1 = type { ptr }
%struct._zend_pcre_globals = type { %struct._zend_array, i64, i64, i8, i32, %struct._zval_struct, %struct._zval_struct, ptr }
%struct._pcre_cache_entry = type { ptr, ptr, i32, i32, i32, i32, i32 }
%struct._zend_string = type { %struct._zend_refcounted_h, i64, i64, [1 x i8] }
%struct.anon.4 = type { i8, i8, %union.anon.5 }
%union.anon.5 = type { i16 }
%struct._Bucket = type { %struct._zval_struct, i64, ptr }

@pcre_globals = dso_local global %struct._zend_pcre_globals zeroinitializer, align 8

; Function Attrs: alwaysinline nounwind uwtable
define internal i32 @zend_gc_delref(ptr noundef %0) #3 {
  %2 = alloca ptr, align 8
  store ptr %0, ptr %2, align 8, !tbaa !109
  %3 = load ptr, ptr %2, align 8, !tbaa !109
  %4 = getelementptr inbounds nuw %struct._zend_refcounted_h, ptr %3, i32 0, i32 0
  %5 = load i32, ptr %4, align 4, !tbaa !111
  %6 = icmp ugt i32 %5, 0
  call void @llvm.assume(i1 %6)
  br label %7

7:                                                ; preds = %1
  br label %8

8:                                                ; preds = %7
  %9 = load ptr, ptr %2, align 8, !tbaa !109
  %10 = getelementptr inbounds nuw %struct._zend_refcounted_h, ptr %9, i32 0, i32 0
  %11 = load i32, ptr %10, align 4, !tbaa !111
  %12 = add i32 %11, -1
  store i32 %12, ptr %10, align 4, !tbaa !111
  ret i32 %12
}

; Function Attrs: alwaysinline nounwind uwtable
define internal i32 @zval_gc_flags(i32 noundef %0) #3 {
  %2 = alloca i32, align 4
  store i32 %0, ptr %2, align 4, !tbaa !13
  %3 = load i32, ptr %2, align 4, !tbaa !13
  %4 = lshr i32 %3, 0
  %5 = and i32 %4, 1008
  ret i32 %5
}

; Function Attrs: alwaysinline nounwind uwtable
define internal void @zend_string_release_ex(ptr noundef %0, i1 noundef zeroext %1) #3 {
  %3 = alloca ptr, align 8
  %4 = alloca i8, align 1
  store ptr %0, ptr %3, align 8, !tbaa !4
  %5 = zext i1 %1 to i8
  store i8 %5, ptr %4, align 1, !tbaa !9
  %6 = load ptr, ptr %3, align 8, !tbaa !4
  %7 = getelementptr inbounds nuw %struct._zend_string, ptr %6, i32 0, i32 0
  %8 = getelementptr inbounds nuw %struct._zend_refcounted_h, ptr %7, i32 0, i32 1
  %9 = load i32, ptr %8, align 4, !tbaa !45
  %10 = call i32 @zval_gc_flags(i32 noundef %9)
  %11 = and i32 %10, 64
  %12 = icmp ne i32 %11, 0
  br i1 %12, label %27, label %13

13:                                               ; preds = %2
  %14 = load ptr, ptr %3, align 8, !tbaa !4
  %15 = getelementptr inbounds nuw %struct._zend_string, ptr %14, i32 0, i32 0
  %16 = call i32 @zend_gc_delref(ptr noundef %15)
  %17 = icmp eq i32 %16, 0
  br i1 %17, label %18, label %26

18:                                               ; preds = %13
  %19 = load i8, ptr %4, align 1, !tbaa !9, !range !17, !noundef !18
  %20 = trunc i8 %19 to i1
  br i1 %20, label %21, label %23

21:                                               ; preds = %18
  %22 = load ptr, ptr %3, align 8, !tbaa !4
  call void @free(ptr noundef %22) #17
  br label %25

23:                                               ; preds = %18
  %24 = load ptr, ptr %3, align 8, !tbaa !4
  call void @_efree(ptr noundef %24)
  br label %25

25:                                               ; preds = %23, %21
  br label %26

26:                                               ; preds = %25, %13
  br label %27

27:                                               ; preds = %26, %2
  ret void
}

; Function Attrs: nounwind uwtable
define internal void @free_subpats_table(ptr noundef %0, i32 noundef %1) #0 {
  %3 = alloca ptr, align 8
  %4 = alloca i32, align 4
  %5 = alloca i32, align 4
  store ptr %0, ptr %3, align 8, !tbaa !99
  store i32 %1, ptr %4, align 4, !tbaa !13
  call void @llvm.lifetime.start.p0(i64 4, ptr %5) #17
  store i32 0, ptr %5, align 4, !tbaa !13
  br label %6

6:                                                ; preds = %24, %2
  %7 = load i32, ptr %5, align 4, !tbaa !13
  %8 = load i32, ptr %4, align 4, !tbaa !13
  %9 = icmp ult i32 %7, %8
  br i1 %9, label %10, label %27

10:                                               ; preds = %6
  %11 = load ptr, ptr %3, align 8, !tbaa !99
  %12 = load i32, ptr %5, align 4, !tbaa !13
  %13 = zext i32 %12 to i64
  %14 = getelementptr inbounds nuw ptr, ptr %11, i64 %13
  %15 = load ptr, ptr %14, align 8, !tbaa !4
  %16 = icmp ne ptr %15, null
  br i1 %16, label %17, label %23

17:                                               ; preds = %10
  %18 = load ptr, ptr %3, align 8, !tbaa !99
  %19 = load i32, ptr %5, align 4, !tbaa !13
  %20 = zext i32 %19 to i64
  %21 = getelementptr inbounds nuw ptr, ptr %18, i64 %20
  %22 = load ptr, ptr %21, align 8, !tbaa !4
  call void @zend_string_release_ex(ptr noundef %22, i1 noundef zeroext false)
  br label %23

23:                                               ; preds = %17, %10
  br label %24

24:                                               ; preds = %23
  %25 = load i32, ptr %5, align 4, !tbaa !13
  %26 = add i32 %25, 1
  store i32 %26, ptr %5, align 4, !tbaa !13
  br label %6

27:                                               ; preds = %6
  %28 = load ptr, ptr %3, align 8, !tbaa !99
  call void @_efree(ptr noundef %28)
  call void @llvm.lifetime.end.p0(i64 4, ptr %5) #17
  ret void
}

; Function Attrs: alwaysinline nounwind uwtable
define internal zeroext i8 @zval_get_type(ptr noundef %0) #3 {
  %2 = alloca ptr, align 8
  store ptr %0, ptr %2, align 8, !tbaa !44
  %3 = load ptr, ptr %2, align 8, !tbaa !44
  %4 = getelementptr inbounds nuw %struct._zval_struct, ptr %3, i32 0, i32 1
  %5 = getelementptr inbounds nuw %struct.anon.4, ptr %4, i32 0, i32 0
  %6 = load i8, ptr %5, align 8, !tbaa !45
  ret i8 %6
}

; Function Attrs: nounwind uwtable
define internal i32 @zm_deactivate_pcre(i32 noundef %0, i32 noundef %1) #0 {
  %3 = alloca i32, align 4
  %4 = alloca i32, align 4
  %5 = alloca ptr, align 8
  %6 = alloca ptr, align 8
  %7 = alloca ptr, align 8
  %8 = alloca ptr, align 8
  %9 = alloca ptr, align 8
  %10 = alloca i32, align 4
  store i32 %0, ptr %3, align 4, !tbaa !13
  store i32 %1, ptr %4, align 4, !tbaa !13
  call void @llvm.lifetime.start.p0(i64 8, ptr %5) #17
  br label %11

11:                                               ; preds = %2
  call void @llvm.lifetime.start.p0(i64 8, ptr %6) #17
  store ptr @pcre_globals, ptr %6, align 8, !tbaa !67
  call void @llvm.lifetime.start.p0(i64 8, ptr %7) #17
  %12 = load ptr, ptr %6, align 8, !tbaa !67
  %13 = getelementptr inbounds nuw %struct._zend_array, ptr %12, i32 0, i32 3
  %14 = load ptr, ptr %13, align 8, !tbaa !45
  %15 = getelementptr inbounds %struct._Bucket, ptr %14, i64 0
  store ptr %15, ptr %7, align 8, !tbaa !117
  call void @llvm.lifetime.start.p0(i64 8, ptr %8) #17
  %16 = load ptr, ptr %6, align 8, !tbaa !67
  %17 = getelementptr inbounds nuw %struct._zend_array, ptr %16, i32 0, i32 3
  %18 = load ptr, ptr %17, align 8, !tbaa !45
  %19 = load ptr, ptr %6, align 8, !tbaa !67
  %20 = getelementptr inbounds nuw %struct._zend_array, ptr %19, i32 0, i32 4
  %21 = load i32, ptr %20, align 8, !tbaa !116
  %22 = zext i32 %21 to i64
  %23 = getelementptr inbounds nuw %struct._Bucket, ptr %18, i64 %22
  store ptr %23, ptr %8, align 8, !tbaa !117
  %24 = load ptr, ptr %6, align 8, !tbaa !67
  %25 = getelementptr inbounds nuw %struct._zend_array, ptr %24, i32 0, i32 1
  %26 = load i32, ptr %25, align 8, !tbaa !45
  %27 = and i32 %26, 4
  %28 = icmp ne i32 %27, 0
  %29 = xor i1 %28, true
  call void @llvm.assume(i1 %29)
  br label %30

30:                                               ; preds = %70, %11
  %31 = load ptr, ptr %7, align 8, !tbaa !117
  %32 = load ptr, ptr %8, align 8, !tbaa !117
  %33 = icmp ne ptr %31, %32
  br i1 %33, label %34, label %73

34:                                               ; preds = %30
  call void @llvm.lifetime.start.p0(i64 8, ptr %9) #17
  %35 = load ptr, ptr %7, align 8, !tbaa !117
  %36 = getelementptr inbounds nuw %struct._Bucket, ptr %35, i32 0, i32 0
  store ptr %36, ptr %9, align 8, !tbaa !44
  %37 = load ptr, ptr %9, align 8, !tbaa !44
  %38 = call zeroext i8 @zval_get_type(ptr noundef %37)
  %39 = zext i8 %38 to i32
  %40 = icmp eq i32 %39, 0
  %41 = xor i1 %40, true
  %42 = xor i1 %41, true
  %43 = zext i1 %42 to i32
  %44 = sext i32 %43 to i64
  %45 = call i64 @llvm.expect.i64(i64 %44, i64 0)
  %46 = icmp ne i64 %45, 0
  br i1 %46, label %47, label %48

47:                                               ; preds = %34
  store i32 6, ptr %10, align 4
  br label %67

48:                                               ; preds = %34
  %49 = load ptr, ptr %9, align 8, !tbaa !44
  %50 = getelementptr inbounds nuw %struct._zval_struct, ptr %49, i32 0, i32 0
  %51 = load ptr, ptr %50, align 8, !tbaa !45
  store ptr %51, ptr %5, align 8, !tbaa !64
  %52 = load ptr, ptr %5, align 8, !tbaa !64
  %53 = getelementptr inbounds nuw %struct._pcre_cache_entry, ptr %52, i32 0, i32 1
  %54 = load ptr, ptr %53, align 8, !tbaa !63
  %55 = icmp ne ptr %54, null
  br i1 %55, label %56, label %66

56:                                               ; preds = %48
  %57 = load ptr, ptr %5, align 8, !tbaa !64
  %58 = getelementptr inbounds nuw %struct._pcre_cache_entry, ptr %57, i32 0, i32 1
  %59 = load ptr, ptr %58, align 8, !tbaa !63
  %60 = load ptr, ptr %5, align 8, !tbaa !64
  %61 = getelementptr inbounds nuw %struct._pcre_cache_entry, ptr %60, i32 0, i32 4
  %62 = load i32, ptr %61, align 8, !tbaa !72
  %63 = add i32 %62, 1
  call void @free_subpats_table(ptr noundef %59, i32 noundef %63)
  %64 = load ptr, ptr %5, align 8, !tbaa !64
  %65 = getelementptr inbounds nuw %struct._pcre_cache_entry, ptr %64, i32 0, i32 1
  store ptr null, ptr %65, align 8, !tbaa !63
  br label %66

66:                                               ; preds = %56, %48
  store i32 0, ptr %10, align 4
  br label %67

67:                                               ; preds = %66, %47
  call void @llvm.lifetime.end.p0(i64 8, ptr %9) #17
  %68 = load i32, ptr %10, align 4
  switch i32 %68, label %83 [
    i32 0, label %69
    i32 6, label %70
  ]

69:                                               ; preds = %67
  br label %70

70:                                               ; preds = %69, %67
  %71 = load ptr, ptr %7, align 8, !tbaa !117
  %72 = getelementptr inbounds nuw %struct._Bucket, ptr %71, i32 1
  store ptr %72, ptr %7, align 8, !tbaa !117
  br label %30

73:                                               ; preds = %30
  call void @llvm.lifetime.end.p0(i64 8, ptr %8) #17
  call void @llvm.lifetime.end.p0(i64 8, ptr %7) #17
  call void @llvm.lifetime.end.p0(i64 8, ptr %6) #17
  br label %74

74:                                               ; preds = %73
  br label %75

75:                                               ; preds = %74
  %76 = load ptr, ptr getelementptr inbounds nuw (%struct._zend_pcre_globals, ptr @pcre_globals, i32 0, i32 7), align 8, !tbaa !101
  call void @php_pcre2_general_context_free(ptr noundef %76)
  store ptr null, ptr getelementptr inbounds nuw (%struct._zend_pcre_globals, ptr @pcre_globals, i32 0, i32 7), align 8, !tbaa !101
  call void @zval_ptr_dtor(ptr noundef getelementptr inbounds nuw (%struct._zend_pcre_globals, ptr @pcre_globals, i32 0, i32 5))
  call void @zval_ptr_dtor(ptr noundef getelementptr inbounds nuw (%struct._zend_pcre_globals, ptr @pcre_globals, i32 0, i32 6))
  br label %77

77:                                               ; preds = %75
  store i32 0, ptr getelementptr inbounds nuw (%struct._zval_struct, ptr getelementptr inbounds nuw (%struct._zend_pcre_globals, ptr @pcre_globals, i32 0, i32 5), i32 0, i32 1), align 8, !tbaa !45
  br label %78

78:                                               ; preds = %77
  br label %79

79:                                               ; preds = %78
  br label %80

80:                                               ; preds = %79
  store i32 0, ptr getelementptr inbounds nuw (%struct._zval_struct, ptr getelementptr inbounds nuw (%struct._zend_pcre_globals, ptr @pcre_globals, i32 0, i32 6), i32 0, i32 1), align 8, !tbaa !45
  br label %81

81:                                               ; preds = %80
  br label %82

82:                                               ; preds = %81
  store i32 1, ptr %10, align 4
  call void @llvm.lifetime.end.p0(i64 8, ptr %5) #17
  ret i32 0

83:                                               ; preds = %67
  unreachable
}