; Function Attrs: nounwind uwtable
define internal noundef i32 @zm_deactivate_pcre(i32 %0, i32 %1) #0 {
  %3 = load ptr, ptr getelementptr inbounds nuw (i8, ptr @pcre_globals, i64 16), align 8, !tbaa !11
  %4 = load i32, ptr getelementptr inbounds nuw (i8, ptr @pcre_globals, i64 24), align 8, !tbaa !107
  %5 = zext i32 %4 to i64
  %6 = getelementptr inbounds nuw %struct._Bucket, ptr %3, i64 %5
  %7 = load i32, ptr getelementptr inbounds nuw (i8, ptr @pcre_globals, i64 8), align 8, !tbaa !11
  %8 = and i32 %7, 4
  %.not = icmp eq i32 %8, 0
  tail call void @llvm.assume(i1 %.not)
  %.not1517 = icmp eq i32 %4, 0
  br i1 %.not1517, label %._crit_edge, label %.lr.ph

.lr.ph:                                           ; preds = %2, %32
  %.018 = phi ptr [ %33, %32 ], [ %3, %2 ]
  %9 = getelementptr inbounds nuw i8, ptr %.018, i64 8
  %10 = load i8, ptr %9, align 8, !tbaa !11
  %11 = icmp eq i8 %10, 0
  br i1 %11, label %32, label %12, !prof !47

12:                                               ; preds = %.lr.ph
  %13 = load ptr, ptr %.018, align 8, !tbaa !11
  %14 = getelementptr inbounds nuw i8, ptr %13, i64 8
  %15 = load ptr, ptr %14, align 8, !tbaa !64
  %.not16 = icmp eq ptr %15, null
  br i1 %.not16, label %32, label %16

16:                                               ; preds = %12
  %17 = getelementptr inbounds nuw i8, ptr %13, i64 24
  %18 = load i32, ptr %17, align 8, !tbaa !65
  %19 = add i32 %18, 1
  %.not9.i = icmp eq i32 %19, 0
  br i1 %.not9.i, label %free_subpats_table.exit, label %.lr.ph.preheader.i

.lr.ph.preheader.i:                               ; preds = %16
  %wide.trip.count.i = zext i32 %19 to i64
  br label %.lr.ph.i

.lr.ph.i:                                         ; preds = %zend_string_release_ex.exit.i, %.lr.ph.preheader.i
  %indvars.iv.i = phi i64 [ 0, %.lr.ph.preheader.i ], [ %indvars.iv.next.i, %zend_string_release_ex.exit.i ]
  %20 = getelementptr inbounds nuw ptr, ptr %15, i64 %indvars.iv.i
  %21 = load ptr, ptr %20, align 8, !tbaa !96
  %.not.i = icmp eq ptr %21, null
  br i1 %.not.i, label %zend_string_release_ex.exit.i, label %22

22:                                               ; preds = %.lr.ph.i
  %23 = getelementptr inbounds nuw i8, ptr %21, i64 4
  %24 = load i32, ptr %23, align 4, !tbaa !11
  %25 = and i32 %24, 64
  %.not.i.i = icmp eq i32 %25, 0
  br i1 %.not.i.i, label %26, label %zend_string_release_ex.exit.i

26:                                               ; preds = %22
  %27 = load i32, ptr %21, align 4, !tbaa !12
  %28 = icmp ne i32 %27, 0
  tail call void @llvm.assume(i1 %28)
  %29 = add i32 %27, -1
  store i32 %29, ptr %21, align 4, !tbaa !12
  %30 = icmp eq i32 %29, 0
  br i1 %30, label %31, label %zend_string_release_ex.exit.i

31:                                               ; preds = %26
  tail call void @_efree(ptr noundef nonnull %21) #24
  br label %zend_string_release_ex.exit.i

zend_string_release_ex.exit.i:                    ; preds = %31, %26, %22, %.lr.ph.i
  %indvars.iv.next.i = add nuw nsw i64 %indvars.iv.i, 1
  %exitcond.not.i = icmp eq i64 %indvars.iv.next.i, %wide.trip.count.i
  br i1 %exitcond.not.i, label %free_subpats_table.exit, label %.lr.ph.i

free_subpats_table.exit:                          ; preds = %zend_string_release_ex.exit.i, %16
  tail call void @_efree(ptr noundef nonnull %15) #24
  store ptr null, ptr %14, align 8, !tbaa !64
  br label %32

32:                                               ; preds = %12, %free_subpats_table.exit, %.lr.ph
  %33 = getelementptr inbounds nuw i8, ptr %.018, i64 32
  %.not15 = icmp eq ptr %33, %6
  br i1 %.not15, label %._crit_edge, label %.lr.ph

._crit_edge:                                      ; preds = %32, %2
  %34 = load ptr, ptr getelementptr inbounds nuw (i8, ptr @pcre_globals, i64 112), align 8, !tbaa !92
  tail call void @php_pcre2_general_context_free(ptr noundef %34) #24
  store ptr null, ptr getelementptr inbounds nuw (i8, ptr @pcre_globals, i64 112), align 8, !tbaa !92
  tail call void @zval_ptr_dtor(ptr noundef nonnull getelementptr inbounds nuw (i8, ptr @pcre_globals, i64 80)) #24
  tail call void @zval_ptr_dtor(ptr noundef nonnull getelementptr inbounds nuw (i8, ptr @pcre_globals, i64 96)) #24
  store i32 0, ptr getelementptr inbounds nuw (i8, ptr @pcre_globals, i64 88), align 8, !tbaa !11
  store i32 0, ptr getelementptr inbounds nuw (i8, ptr @pcre_globals, i64 104), align 8, !tbaa !11
  ret i32 0
}